target datalayout = "e-m:e-p270:32:32-p271:32:32-p272:64:64-i64:64-i128:128-f80:128-n8:16:32:64-S128"
target triple = "x86_64-pc-linux-gnu"

%"struct.cv::Ptr" = type { %"class.std::shared_ptr" }
%"class.std::shared_ptr" = type { %"class.std::__shared_ptr" }
%"class.std::__shared_ptr" = type { ptr, %"class.std::__shared_count" }
%"class.std::__shared_count" = type { ptr }
%"class.cv::Mat" = type { i32, i32, i32, i32, ptr, ptr, ptr, ptr, ptr, ptr, %"struct.cv::MatSize", %"struct.cv::MatStep" }
%"struct.cv::MatSize" = type { ptr }
%"struct.cv::MatStep" = type { ptr, [2 x i64] }
%"class.cv::rgbd::Odometry" = type { %"class.cv::Algorithm" }
%"class.cv::Algorithm" = type { ptr }
%"class.cv::rgbd::RgbdICPOdometry" = type { %"class.cv::rgbd::Odometry", double, double, double, double, %"class.cv::Mat", %"class.cv::Mat", %"class.cv::Mat", i32, double, double, %"struct.cv::Ptr" }

; Function Attrs: mustprogress nounwind uwtable
define linkonce_odr hidden void @_ZNSt14__shared_countILN9__gnu_cxx12_Lock_policyE2EEC2Ev(ptr noundef nonnull align 8 dereferenceable(8) %0) unnamed_addr #7 comdat align 2 {
  %2 = alloca ptr, align 8
  store ptr %0, ptr %2, align 8, !tbaa !238
  %3 = load ptr, ptr %2, align 8
  %4 = getelementptr inbounds nuw %"class.std::__shared_count", ptr %3, i32 0, i32 0
  store ptr null, ptr %4, align 8, !tbaa !240
  ret void
}

; Function Attrs: mustprogress nounwind uwtable
define linkonce_odr hidden void @_ZNSt12__shared_ptrIN2cv4rgbd11RgbdNormalsELN9__gnu_cxx12_Lock_policyE2EEC2Ev(ptr noundef nonnull align 8 dereferenceable(16) %0) unnamed_addr #7 comdat align 2 {
  %2 = alloca ptr, align 8
  store ptr %0, ptr %2, align 8, !tbaa !408
  %3 = load ptr, ptr %2, align 8
  %4 = getelementptr inbounds nuw %"class.std::__shared_ptr", ptr %3, i32 0, i32 0
  store ptr null, ptr %4, align 8, !tbaa !411
  %5 = getelementptr inbounds nuw %"class.std::__shared_ptr", ptr %3, i32 0, i32 1
  call void @_ZNSt14__shared_countILN9__gnu_cxx12_Lock_policyE2EEC2Ev(ptr noundef nonnull align 8 dereferenceable(8) %5) #3
  ret void
}

; Function Attrs: mustprogress nounwind uwtable
define linkonce_odr hidden void @_ZNSt10shared_ptrIN2cv4rgbd11RgbdNormalsEEC2Ev(ptr noundef nonnull align 8 dereferenceable(16) %0) unnamed_addr #7 comdat align 2 {
  %2 = alloca ptr, align 8
  store ptr %0, ptr %2, align 8, !tbaa !406
  %3 = load ptr, ptr %2, align 8
  call void @_ZNSt12__shared_ptrIN2cv4rgbd11RgbdNormalsELN9__gnu_cxx12_Lock_policyE2EEC2Ev(ptr noundef nonnull align 8 dereferenceable(16) %3) #3
  ret void
}

; Function Attrs: inlinehint mustprogress nounwind uwtable
define linkonce_odr hidden void @_ZN2cv3PtrINS_4rgbd11RgbdNormalsEEC2Ev(ptr noundef nonnull align 8 dereferenceable(16) %0) unnamed_addr #11 comdat align 2 {
  %2 = alloca ptr, align 8
  store ptr %0, ptr %2, align 8, !tbaa !152
  %3 = load ptr, ptr %2, align 8
  call void @_ZNSt10shared_ptrIN2cv4rgbd11RgbdNormalsEEC2Ev(ptr noundef nonnull align 8 dereferenceable(16) %3) #3
  ret void
}

; Function Attrs: inlinehint mustprogress nounwind uwtable
define linkonce_odr hidden noundef float @_ZN2cv4rgbd8Odometry20DEFAULT_MAX_ROTATIONEv() #11 comdat align 2 {
  ret float 1.500000e+01
}

; Function Attrs: inlinehint mustprogress nounwind uwtable
define linkonce_odr hidden noundef float @_ZN2cv4rgbd8Odometry23DEFAULT_MAX_TRANSLATIONEv() #11 comdat align 2 {
  ret float 0x3FC3333340000000
}

; Function Attrs: inlinehint mustprogress nounwind uwtable
define linkonce_odr hidden noundef float @_ZN2cv4rgbd8Odometry23DEFAULT_MAX_POINTS_PARTEv() #11 comdat align 2 {
  ret float 0x3FB1EB8520000000
}

; Function Attrs: inlinehint mustprogress nounwind uwtable
define linkonce_odr hidden noundef float @_ZN2cv4rgbd8Odometry22DEFAULT_MAX_DEPTH_DIFFEv() #11 comdat align 2 {
  ret float 0x3FB1EB8520000000
}

; Function Attrs: inlinehint mustprogress nounwind uwtable
define linkonce_odr hidden noundef float @_ZN2cv4rgbd8Odometry17DEFAULT_MAX_DEPTHEv() #11 comdat align 2 {
  ret float 4.000000e+00
}

; Function Attrs: inlinehint mustprogress nounwind uwtable
define linkonce_odr hidden noundef float @_ZN2cv4rgbd8Odometry17DEFAULT_MIN_DEPTHEv() #11 comdat align 2 {
  ret float 0.000000e+00
}

; Function Attrs: inlinehint mustprogress uwtable
define linkonce_odr hidden void @_ZN2cv4rgbd8OdometryC2Ev(ptr noundef nonnull align 8 dereferenceable(8) %0) unnamed_addr #4 comdat align 2 {
  %2 = alloca ptr, align 8
  store ptr %0, ptr %2, align 8, !tbaa !37
  %3 = load ptr, ptr %2, align 8
  call void @_ZN2cv9AlgorithmC2Ev(ptr noundef nonnull align 8 dereferenceable(8) %3)
  store ptr getelementptr inbounds inrange(-16, 120) ({ [17 x ptr] }, ptr @_ZTVN2cv4rgbd8OdometryE, i32 0, i32 0, i32 2), ptr %3, align 8, !tbaa !18
  ret void
}

; Function Attrs: mustprogress uwtable
define void @_ZN2cv4rgbd15RgbdICPOdometryC2Ev(ptr noundef nonnull align 8 dereferenceable(368) %0) unnamed_addr #6 align 2 personality ptr @__gxx_personality_v0 {
  %2 = alloca ptr, align 8
  %3 = alloca ptr, align 8
  %4 = alloca i32, align 4
  store ptr %0, ptr %2, align 8, !tbaa !170
  %5 = load ptr, ptr %2, align 8
  call void @_ZN2cv4rgbd8OdometryC2Ev(ptr noundef nonnull align 8 dereferenceable(8) %5)
  store ptr getelementptr inbounds inrange(-16, 120) ({ [17 x ptr] }, ptr @_ZTVN2cv4rgbd15RgbdICPOdometryE, i32 0, i32 0, i32 2), ptr %5, align 8, !tbaa !18
  %6 = getelementptr inbounds nuw %"class.cv::rgbd::RgbdICPOdometry", ptr %5, i32 0, i32 1
  %7 = invoke noundef float @_ZN2cv4rgbd8Odometry17DEFAULT_MIN_DEPTHEv()
          to label %8 unwind label %39

8:                                                ; preds = %1
  %9 = fpext float %7 to double
  store double %9, ptr %6, align 8, !tbaa !172
  %10 = getelementptr inbounds nuw %"class.cv::rgbd::RgbdICPOdometry", ptr %5, i32 0, i32 2
  %11 = invoke noundef float @_ZN2cv4rgbd8Odometry17DEFAULT_MAX_DEPTHEv()
          to label %12 unwind label %39

12:                                               ; preds = %8
  %13 = fpext float %11 to double
  store double %13, ptr %10, align 8, !tbaa !174
  %14 = getelementptr inbounds nuw %"class.cv::rgbd::RgbdICPOdometry", ptr %5, i32 0, i32 3
  %15 = invoke noundef float @_ZN2cv4rgbd8Odometry22DEFAULT_MAX_DEPTH_DIFFEv()
          to label %16 unwind label %39

16:                                               ; preds = %12
  %17 = fpext float %15 to double
  store double %17, ptr %14, align 8, !tbaa !175
  %18 = getelementptr inbounds nuw %"class.cv::rgbd::RgbdICPOdometry", ptr %5, i32 0, i32 4
  %19 = invoke noundef float @_ZN2cv4rgbd8Odometry23DEFAULT_MAX_POINTS_PARTEv()
          to label %20 unwind label %39

20:                                               ; preds = %16
  %21 = fpext float %19 to double
  store double %21, ptr %18, align 8, !tbaa !176
  %22 = getelementptr inbounds nuw %"class.cv::rgbd::RgbdICPOdometry", ptr %5, i32 0, i32 5
  call void @_ZN2cv3MatC1Ev(ptr noundef nonnull align 8 dereferenceable(96) %22) #3
  %23 = getelementptr inbounds nuw %"class.cv::rgbd::RgbdICPOdometry", ptr %5, i32 0, i32 6
  call void @_ZN2cv3MatC1Ev(ptr noundef nonnull align 8 dereferenceable(96) %23) #3
  %24 = getelementptr inbounds nuw %"class.cv::rgbd::RgbdICPOdometry", ptr %5, i32 0, i32 7
  call void @_ZN2cv3MatC1Ev(ptr noundef nonnull align 8 dereferenceable(96) %24) #3
  %25 = getelementptr inbounds nuw %"class.cv::rgbd::RgbdICPOdometry", ptr %5, i32 0, i32 8
  store i32 4, ptr %25, align 8, !tbaa !177
  %26 = getelementptr inbounds nuw %"class.cv::rgbd::RgbdICPOdometry", ptr %5, i32 0, i32 9
  %27 = invoke noundef float @_ZN2cv4rgbd8Odometry23DEFAULT_MAX_TRANSLATIONEv()
          to label %28 unwind label %43

28:                                               ; preds = %20
  %29 = fpext float %27 to double
  store double %29, ptr %26, align 8, !tbaa !178
  %30 = getelementptr inbounds nuw %"class.cv::rgbd::RgbdICPOdometry", ptr %5, i32 0, i32 10
  %31 = invoke noundef float @_ZN2cv4rgbd8Odometry20DEFAULT_MAX_ROTATIONEv()
          to label %32 unwind label %43

32:                                               ; preds = %28
  %33 = fpext float %31 to double
  store double %33, ptr %30, align 8, !tbaa !179
  %34 = getelementptr inbounds nuw %"class.cv::rgbd::RgbdICPOdometry", ptr %5, i32 0, i32 11
  call void @_ZN2cv3PtrINS_4rgbd11RgbdNormalsEEC2Ev(ptr noundef nonnull align 8 dereferenceable(16) %34) #3
  %35 = getelementptr inbounds nuw %"class.cv::rgbd::RgbdICPOdometry", ptr %5, i32 0, i32 5
  invoke void @_ZN2cv4rgbdL20setDefaultIterCountsERNS_3MatE(ptr noundef nonnull align 8 dereferenceable(96) %35)
          to label %36 unwind label %47

36:                                               ; preds = %32
  %37 = getelementptr inbounds nuw %"class.cv::rgbd::RgbdICPOdometry", ptr %5, i32 0, i32 6
  invoke void @_ZN2cv4rgbdL31setDefaultMinGradientMagnitudesERNS_3MatE(ptr noundef nonnull align 8 dereferenceable(96) %37)
          to label %38 unwind label %47

38:                                               ; preds = %36
  ret void

39:                                               ; preds = %16, %12, %8, %1
  %40 = landingpad { ptr, i32 }
          cleanup
  %41 = extractvalue { ptr, i32 } %40, 0
  store ptr %41, ptr %3, align 8
  %42 = extractvalue { ptr, i32 } %40, 1
  store i32 %42, ptr %4, align 4
  br label %52

43:                                               ; preds = %28, %20
  %44 = landingpad { ptr, i32 }
          cleanup
  %45 = extractvalue { ptr, i32 } %44, 0
  store ptr %45, ptr %3, align 8
  %46 = extractvalue { ptr, i32 } %44, 1
  store i32 %46, ptr %4, align 4
  br label %51

47:                                               ; preds = %36, %32
  %48 = landingpad { ptr, i32 }
          cleanup
  %49 = extractvalue { ptr, i32 } %48, 0
  store ptr %49, ptr %3, align 8
  %50 = extractvalue { ptr, i32 } %48, 1
  store i32 %50, ptr %4, align 4
  call void @_ZNSt12__shared_ptrIN2cv4rgbd11RgbdNormalsELN9__gnu_cxx12_Lock_policyE2EED2Ev(ptr noundef nonnull align 8 dereferenceable(16) %34) #3
  br label %51

51:                                               ; preds = %47, %43
  call void @_ZN2cv3MatD1Ev(ptr noundef nonnull align 8 dereferenceable(96) %24) #3
  call void @_ZN2cv3MatD1Ev(ptr noundef nonnull align 8 dereferenceable(96) %23) #3
  call void @_ZN2cv3MatD1Ev(ptr noundef nonnull align 8 dereferenceable(96) %22) #3
  br label %52

52:                                               ; preds = %51, %39
  call void @_ZN2cv9AlgorithmD2Ev(ptr noundef nonnull align 8 dereferenceable(8) %5) #3
  br label %53

53:                                               ; preds = %52
  %54 = load ptr, ptr %3, align 8
  %55 = load i32, ptr %4, align 4
  %56 = insertvalue { ptr, i32 } poison, ptr %54, 0
  %57 = insertvalue { ptr, i32 } %56, i32 %55, 1
  resume { ptr, i32 } %57
}