; Function Attrs: mustprogress uwtable
define void @_ZN2cv4rgbd15RgbdICPOdometryC2Ev(ptr noundef nonnull align 8 dereferenceable(368) %0) unnamed_addr #4 align 2 personality ptr @__gxx_personality_v0 {
  tail call void @_ZN2cv9AlgorithmC2Ev(ptr noundef nonnull align 8 dereferenceable(8) %0)
  store ptr getelementptr inbounds nuw inrange(-16, 120) (i8, ptr @_ZTVN2cv4rgbd15RgbdICPOdometryE, i64 16), ptr %0, align 8, !tbaa !15
  %2 = getelementptr inbounds nuw i8, ptr %0, i64 8
  store double 0.000000e+00, ptr %2, align 8, !tbaa !293
  %3 = getelementptr inbounds nuw i8, ptr %0, i64 16
  store double 4.000000e+00, ptr %3, align 8, !tbaa !295
  %4 = getelementptr inbounds nuw i8, ptr %0, i64 24
  store double 0x3FB1EB8520000000, ptr %4, align 8, !tbaa !296
  %5 = getelementptr inbounds nuw i8, ptr %0, i64 32
  store double 0x3FB1EB8520000000, ptr %5, align 8, !tbaa !297
  %6 = getelementptr inbounds nuw i8, ptr %0, i64 40
  tail call void @_ZN2cv3MatC1Ev(ptr noundef nonnull align 8 dereferenceable(96) %6) #31
  %7 = getelementptr inbounds nuw i8, ptr %0, i64 136
  tail call void @_ZN2cv3MatC1Ev(ptr noundef nonnull align 8 dereferenceable(96) %7) #31
  %8 = getelementptr inbounds nuw i8, ptr %0, i64 232
  tail call void @_ZN2cv3MatC1Ev(ptr noundef nonnull align 8 dereferenceable(96) %8) #31
  %9 = getelementptr inbounds nuw i8, ptr %0, i64 328
  store i32 4, ptr %9, align 8, !tbaa !298
  %10 = getelementptr inbounds nuw i8, ptr %0, i64 336
  store double 0x3FC3333340000000, ptr %10, align 8, !tbaa !299
  %11 = getelementptr inbounds nuw i8, ptr %0, i64 344
  store double 1.500000e+01, ptr %11, align 8, !tbaa !300
  %12 = getelementptr inbounds nuw i8, ptr %0, i64 352
  tail call void @llvm.memset.p0.i64(ptr noundef nonnull align 8 dereferenceable(16) %12, i8 0, i64 16, i1 false)
  invoke fastcc void @_ZN2cv4rgbdL20setDefaultIterCountsERNS_3MatE(ptr noundef nonnull align 8 dereferenceable(96) %6)
          to label %13 unwind label %15

13:                                               ; preds = %1
  invoke fastcc void @_ZN2cv4rgbdL31setDefaultMinGradientMagnitudesERNS_3MatE(ptr noundef nonnull align 8 dereferenceable(96) %7)
          to label %14 unwind label %15

14:                                               ; preds = %13
  ret void

15:                                               ; preds = %13, %1
  %16 = landingpad { ptr, i32 }
          cleanup
  tail call void @_ZNSt12__shared_ptrIN2cv4rgbd11RgbdNormalsELN9__gnu_cxx12_Lock_policyE2EED2Ev(ptr noundef nonnull align 8 dereferenceable(16) %12) #31
  tail call void @_ZN2cv3MatD1Ev(ptr noundef nonnull align 8 dereferenceable(96) %8) #31
  tail call void @_ZN2cv3MatD1Ev(ptr noundef nonnull align 8 dereferenceable(96) %7) #31
  tail call void @_ZN2cv3MatD1Ev(ptr noundef nonnull align 8 dereferenceable(96) %6) #31
  tail call void @_ZN2cv9AlgorithmD2Ev(ptr noundef nonnull align 8 dereferenceable(8) %0) #31
  resume { ptr, i32 } %16
}